target datalayout = "e-m:e-p270:32:32-p271:32:32-p272:64:64-i64:64-i128:128-f80:128-n8:16:32:64-S128"
target triple = "x86_64-pc-linux-gnu"

%struct.HEVCContext = type { ptr, ptr, ptr, i32, [2 x %struct.HEVCLayerContext], i32, i32, i32, i8, ptr, %struct.HEVCParamSets, %struct.HEVCSEI, ptr, [7 x %struct.RefPicList], ptr, ptr, %struct.SliceHeader, i32, i32, ptr, ptr, i32, i32, i32, i32, i32, i32, i32, %struct.HEVCPredContext, %struct.HEVCDSPContext, %struct.VideoDSPContext, %struct.BswapDSPContext, %struct.H274FilmGrainDatabase, ptr, i32, %struct.HEVCCABACState, ptr, i32, i32, ptr, %struct.H2645Packet, i32, i32, i32, i32, ptr, i32, ptr, i32, ptr, i32, i32, i32, i32, i64, ptr, %struct.DOVIContext }
%struct.HEVCLayerContext = type { [32 x %struct.HEVCFrame], ptr, ptr, i32, i32, ptr, ptr, ptr, ptr, ptr, ptr, ptr, ptr, ptr, ptr, ptr, ptr, [3 x ptr], [3 x ptr], ptr, ptr }
%struct.HEVCFrame = type { %union.anon, ptr, i32, ptr, ptr, ptr, i32, i32, ptr, ptr, i32, ptr, i32, i8 }
%union.anon = type { %struct.ProgressFrame }
%struct.ProgressFrame = type { ptr, ptr }
%struct.HEVCParamSets = type { [16 x ptr], [16 x ptr], [64 x ptr] }
%struct.HEVCSEI = type { %struct.H2645SEI, %struct.HEVCSEIPictureHash, %struct.HEVCSEIPictureTiming, i32, %struct.HEVCSEITimeCode, %struct.HEVCSEITDRDI, %struct.HEVCSEIRecoveryPoint }
%struct.H2645SEI = type { %struct.H2645SEIA53Caption, %struct.H2645SEIAFD, %struct.HEVCSEIDynamicHDRPlus, %struct.HEVCSEIDynamicHDRVivid, %struct.HEVCSEILCEVC, %struct.H2645SEIUnregistered, %struct.H2645SEIFramePacking, %struct.H2645SEIDisplayOrientation, %struct.H2645SEIAlternativeTransfer, %struct.H2645SEIAmbientViewingEnvironment, %struct.H2645SEIMasteringDisplay, %struct.H2645SEIContentLight, %struct.AVFilmGrainAFGS1Params, ptr }
%struct.H2645SEIA53Caption = type { ptr }
%struct.H2645SEIAFD = type { i32, i8 }
%struct.HEVCSEIDynamicHDRPlus = type { ptr }
%struct.HEVCSEIDynamicHDRVivid = type { ptr }
%struct.HEVCSEILCEVC = type { ptr }
%struct.H2645SEIUnregistered = type { ptr, i32, i32 }
%struct.H2645SEIFramePacking = type { i32, i32, i32, i32, i32, i32, i32, i32 }
%struct.H2645SEIDisplayOrientation = type { i32, i32, i32, i32 }
%struct.H2645SEIAlternativeTransfer = type { i32, i32 }
%struct.H2645SEIAmbientViewingEnvironment = type { i32, i32, i16, i16 }
%struct.H2645SEIMasteringDisplay = type { i32, [3 x [2 x i16]], [2 x i16], i32, i32 }
%struct.H2645SEIContentLight = type { i32, i16, i16 }
%struct.AVFilmGrainAFGS1Params = type { i32, [8 x ptr] }
%struct.HEVCSEIPictureHash = type { [3 x [16 x i8]], i8 }
%struct.HEVCSEIPictureTiming = type { i32 }
%struct.HEVCSEITimeCode = type { i32, i8, [3 x i8], [3 x i8], [3 x i8], [3 x i8], [3 x i8], [3 x i8], [3 x i16], [3 x i8], [3 x i8], [3 x i8], [3 x i8], [3 x i8], [3 x i8], [3 x i8], [3 x i32] }
%struct.HEVCSEITDRDI = type { i8, i8, i8, i8, [32 x i16], [32 x i16], [32 x i8], [32 x i8], [32 x i8], [32 x i8], [32 x i8], [32 x i16], i8 }
%struct.HEVCSEIRecoveryPoint = type { i16, i8, i8, i8 }
%struct.RefPicList = type { [16 x ptr], [16 x i32], [16 x i32], i32 }
%struct.SliceHeader = type { i32, i32, i32, i32, i32, i32, i8, i8, i8, i8, i8, i32, i32, %struct.ShortTermRPS, ptr, i32, %struct.LongTermRPS, [2 x [32 x i32]], [2 x i8], i8, i8, [2 x i32], [3 x i8], i8, i8, i8, i8, i8, i32, i32, i32, i32, i32, i32, i32, i8, i32, i32, i8, i8, ptr, ptr, ptr, i32, i8, i8, i16, [16 x i16], [16 x [2 x i16]], [16 x [2 x i16]], [16 x i16], [16 x i16], [16 x [2 x i16]], [16 x i16], [16 x [2 x i16]], i32, i32 }
%struct.ShortTermRPS = type { [32 x i32], i32, i8, i8, i8, i8, i16, i8 }
%struct.LongTermRPS = type { [32 x i32], [32 x i8], [32 x i8], i8 }
%struct.HEVCPredContext = type { [4 x ptr], [4 x ptr], ptr, [4 x ptr] }
%struct.HEVCDSPContext = type { ptr, [4 x ptr], ptr, ptr, ptr, [4 x ptr], [4 x ptr], [5 x ptr], [5 x ptr], [2 x ptr], [10 x [2 x [2 x ptr]]], [10 x [2 x [2 x ptr]]], [10 x [2 x [2 x ptr]]], [10 x [2 x [2 x ptr]]], [10 x [2 x [2 x ptr]]], [10 x [2 x [2 x ptr]]], [10 x [2 x [2 x ptr]]], [10 x [2 x [2 x ptr]]], [10 x [2 x [2 x ptr]]], [10 x [2 x [2 x ptr]]], ptr, ptr, ptr, ptr, ptr, ptr, ptr, ptr }
%struct.VideoDSPContext = type { ptr, ptr }
%struct.BswapDSPContext = type { ptr, ptr }
%struct.H274FilmGrainDatabase = type { [13 x [13 x [64 x [64 x i8]]]], [13 x i16], [64 x [64 x i16]] }
%struct.HEVCCABACState = type { [199 x i8], [4 x i8] }
%struct.H2645Packet = type { ptr, %struct.H2645RBSP, i32, i32, i32 }
%struct.H2645RBSP = type { ptr, ptr, i32, i32 }
%struct.DOVIContext = type { ptr, i32, %struct.AVDOVIDecoderConfigurationRecord, %struct.AVDOVIRpuDataHeader, ptr, ptr, ptr, ptr, [16 x ptr], ptr, i32 }
%struct.AVDOVIDecoderConfigurationRecord = type { i8, i8, i8, i8, i8, i8, i8, i8, i8 }
%struct.AVDOVIRpuDataHeader = type { i8, i16, i8, i8, i8, i8, i8, i8, i8, i8, i8, i8, i8, i8, i8, i8, i8 }
%struct.HEVCVPS = type { i32, i8, i32, i32, %struct.PTL, i32, [7 x i32], [7 x i32], [7 x i32], i32, i32, i8, i32, i32, i8, i32, i32, ptr, i32, i16, [63 x i8], [2 x i8], i8, i8, i8, i8, %struct.anon.0, [2 x i16], i8, [2 x i64], [2 x i8], i8, %struct.RepFormat, ptr, i32 }
%struct.PTL = type { %struct.PTLCommon, [7 x %struct.PTLCommon], [7 x i8], [7 x i8] }
%struct.PTLCommon = type { i8, i8, i8, [32 x i8], i8, i8, i8, i8, i8, i8, i8, i8, i8, i8, i8, i8, i8, i8, i8, i8 }
%struct.anon.0 = type { i32, i32, i32 }
%struct.RepFormat = type { i16, i16, i8, i8, i8, i8, i16, i16, i16, i16 }

; Function Attrs: nounwind uwtable
define internal i32 @export_multilayer(ptr noundef %0, ptr noundef %1) #0 {
  %3 = alloca i32, align 4
  %4 = alloca ptr, align 8
  %5 = alloca ptr, align 8
  %6 = alloca ptr, align 8
  %7 = alloca i32, align 4
  %8 = alloca i32, align 4
  store ptr %0, ptr %4, align 8, !tbaa !4
  store ptr %1, ptr %5, align 8, !tbaa !69
  call void @llvm.lifetime.start.p0(i64 8, ptr %6) #12
  %9 = load ptr, ptr %4, align 8, !tbaa !4
  %10 = getelementptr inbounds nuw %struct.HEVCContext, ptr %9, i32 0, i32 11
  %11 = getelementptr inbounds nuw %struct.HEVCSEI, ptr %10, i32 0, i32 5
  store ptr %11, ptr %6, align 8, !tbaa !293
  %12 = load ptr, ptr %4, align 8, !tbaa !4
  %13 = getelementptr inbounds nuw %struct.HEVCContext, ptr %12, i32 0, i32 47
  call void @av_freep(ptr noundef %13)
  %14 = load ptr, ptr %4, align 8, !tbaa !4
  %15 = getelementptr inbounds nuw %struct.HEVCContext, ptr %14, i32 0, i32 48
  store i32 0, ptr %15, align 8, !tbaa !295
  %16 = load ptr, ptr %4, align 8, !tbaa !4
  %17 = getelementptr inbounds nuw %struct.HEVCContext, ptr %16, i32 0, i32 49
  call void @av_freep(ptr noundef %17)
  %18 = load ptr, ptr %4, align 8, !tbaa !4
  %19 = getelementptr inbounds nuw %struct.HEVCContext, ptr %18, i32 0, i32 50
  store i32 0, ptr %19, align 8, !tbaa !296
  %20 = load ptr, ptr %5, align 8, !tbaa !69
  %21 = getelementptr inbounds nuw %struct.HEVCVPS, ptr %20, i32 0, i32 18
  %22 = load i32, ptr %21, align 8, !tbaa !71
  %23 = icmp slt i32 %22, 2
  br i1 %23, label %24, label %31

24:                                               ; preds = %2
  %25 = load ptr, ptr %5, align 8, !tbaa !69
  %26 = getelementptr inbounds nuw %struct.HEVCVPS, ptr %25, i32 0, i32 27
  %27 = getelementptr inbounds [2 x i16], ptr %26, i64 0, i64 0
  %28 = load i16, ptr %27, align 8, !tbaa !129
  %29 = icmp ne i16 %28, 0
  br i1 %29, label %31, label %30

30:                                               ; preds = %24
  store i32 0, ptr %3, align 4
  store i32 1, ptr %7, align 4
  br label %150

31:                                               ; preds = %24, %2
  %32 = load ptr, ptr %5, align 8, !tbaa !69
  %33 = getelementptr inbounds nuw %struct.HEVCVPS, ptr %32, i32 0, i32 18
  %34 = load i32, ptr %33, align 8, !tbaa !71
  %35 = sext i32 %34 to i64
  %36 = call noalias ptr @av_calloc(i64 noundef %35, i64 noundef 4)
  %37 = load ptr, ptr %4, align 8, !tbaa !4
  %38 = getelementptr inbounds nuw %struct.HEVCContext, ptr %37, i32 0, i32 47
  store ptr %36, ptr %38, align 8, !tbaa !297
  %39 = load ptr, ptr %4, align 8, !tbaa !4
  %40 = getelementptr inbounds nuw %struct.HEVCContext, ptr %39, i32 0, i32 47
  %41 = load ptr, ptr %40, align 8, !tbaa !297
  %42 = icmp ne ptr %41, null
  br i1 %42, label %44, label %43

43:                                               ; preds = %31
  store i32 -12, ptr %3, align 4
  store i32 1, ptr %7, align 4
  br label %150

44:                                               ; preds = %31
  %45 = load ptr, ptr %6, align 8, !tbaa !293
  %46 = getelementptr inbounds nuw %struct.HEVCSEITDRDI, ptr %45, i32 0, i32 3
  %47 = load i8, ptr %46, align 1, !tbaa !298
  %48 = icmp ne i8 %47, 0
  br i1 %48, label %49, label %63

49:                                               ; preds = %44
  %50 = load ptr, ptr %5, align 8, !tbaa !69
  %51 = getelementptr inbounds nuw %struct.HEVCVPS, ptr %50, i32 0, i32 18
  %52 = load i32, ptr %51, align 8, !tbaa !71
  %53 = sext i32 %52 to i64
  %54 = call noalias ptr @av_calloc(i64 noundef %53, i64 noundef 4)
  %55 = load ptr, ptr %4, align 8, !tbaa !4
  %56 = getelementptr inbounds nuw %struct.HEVCContext, ptr %55, i32 0, i32 49
  store ptr %54, ptr %56, align 8, !tbaa !299
  %57 = load ptr, ptr %4, align 8, !tbaa !4
  %58 = getelementptr inbounds nuw %struct.HEVCContext, ptr %57, i32 0, i32 49
  %59 = load ptr, ptr %58, align 8, !tbaa !299
  %60 = icmp ne ptr %59, null
  br i1 %60, label %62, label %61

61:                                               ; preds = %49
  store i32 -12, ptr %3, align 4
  store i32 1, ptr %7, align 4
  br label %150

62:                                               ; preds = %49
  br label %63

63:                                               ; preds = %62, %44
  call void @llvm.lifetime.start.p0(i64 4, ptr %8) #12
  store i32 0, ptr %8, align 4, !tbaa !70
  br label %64

64:                                               ; preds = %128, %63
  %65 = load i32, ptr %8, align 4, !tbaa !70
  %66 = load ptr, ptr %5, align 8, !tbaa !69
  %67 = getelementptr inbounds nuw %struct.HEVCVPS, ptr %66, i32 0, i32 18
  %68 = load i32, ptr %67, align 8, !tbaa !71
  %69 = icmp slt i32 %65, %68
  br i1 %69, label %71, label %70

70:                                               ; preds = %64
  store i32 2, ptr %7, align 4
  call void @llvm.lifetime.end.p0(i64 4, ptr %8) #12
  br label %131

71:                                               ; preds = %64
  %72 = load ptr, ptr %5, align 8, !tbaa !69
  %73 = getelementptr inbounds nuw %struct.HEVCVPS, ptr %72, i32 0, i32 27
  %74 = load i32, ptr %8, align 4, !tbaa !70
  %75 = sext i32 %74 to i64
  %76 = getelementptr inbounds [2 x i16], ptr %73, i64 0, i64 %75
  %77 = load i16, ptr %76, align 2, !tbaa !129
  %78 = zext i16 %77 to i32
  %79 = load ptr, ptr %4, align 8, !tbaa !4
  %80 = getelementptr inbounds nuw %struct.HEVCContext, ptr %79, i32 0, i32 47
  %81 = load ptr, ptr %80, align 8, !tbaa !297
  %82 = load i32, ptr %8, align 4, !tbaa !70
  %83 = sext i32 %82 to i64
  %84 = getelementptr inbounds i32, ptr %81, i64 %83
  store i32 %78, ptr %84, align 4, !tbaa !70
  %85 = load ptr, ptr %4, align 8, !tbaa !4
  %86 = getelementptr inbounds nuw %struct.HEVCContext, ptr %85, i32 0, i32 49
  %87 = load ptr, ptr %86, align 8, !tbaa !299
  %88 = icmp ne ptr %87, null
  br i1 %88, label %89, label %127

89:                                               ; preds = %71
  %90 = load ptr, ptr %5, align 8, !tbaa !69
  %91 = getelementptr inbounds nuw %struct.HEVCVPS, ptr %90, i32 0, i32 27
  %92 = load i32, ptr %8, align 4, !tbaa !70
  %93 = sext i32 %92 to i64
  %94 = getelementptr inbounds [2 x i16], ptr %91, i64 0, i64 %93
  %95 = load i16, ptr %94, align 2, !tbaa !129
  %96 = zext i16 %95 to i32
  %97 = load ptr, ptr %6, align 8, !tbaa !293
  %98 = getelementptr inbounds nuw %struct.HEVCSEITDRDI, ptr %97, i32 0, i32 4
  %99 = getelementptr inbounds [32 x i16], ptr %98, i64 0, i64 0
  %100 = load i16, ptr %99, align 2, !tbaa !129
  %101 = zext i16 %100 to i32
  %102 = icmp eq i32 %96, %101
  br i1 %102, label %103, label %104

103:                                              ; preds = %89
  br label %119

104:                                              ; preds = %89
  %105 = load ptr, ptr %5, align 8, !tbaa !69
  %106 = getelementptr inbounds nuw %struct.HEVCVPS, ptr %105, i32 0, i32 27
  %107 = load i32, ptr %8, align 4, !tbaa !70
  %108 = sext i32 %107 to i64
  %109 = getelementptr inbounds [2 x i16], ptr %106, i64 0, i64 %108
  %110 = load i16, ptr %109, align 2, !tbaa !129
  %111 = zext i16 %110 to i32
  %112 = load ptr, ptr %6, align 8, !tbaa !293
  %113 = getelementptr inbounds nuw %struct.HEVCSEITDRDI, ptr %112, i32 0, i32 5
  %114 = getelementptr inbounds [32 x i16], ptr %113, i64 0, i64 0
  %115 = load i16, ptr %114, align 2, !tbaa !129
  %116 = zext i16 %115 to i32
  %117 = icmp eq i32 %111, %116
  %118 = select i1 %117, i32 2, i32 3
  br label %119

119:                                              ; preds = %104, %103
  %120 = phi i32 [ 1, %103 ], [ %118, %104 ]
  %121 = load ptr, ptr %4, align 8, !tbaa !4
  %122 = getelementptr inbounds nuw %struct.HEVCContext, ptr %121, i32 0, i32 49
  %123 = load ptr, ptr %122, align 8, !tbaa !299
  %124 = load i32, ptr %8, align 4, !tbaa !70
  %125 = sext i32 %124 to i64
  %126 = getelementptr inbounds i32, ptr %123, i64 %125
  store i32 %120, ptr %126, align 4, !tbaa !70
  br label %127

127:                                              ; preds = %119, %71
  br label %128

128:                                              ; preds = %127
  %129 = load i32, ptr %8, align 4, !tbaa !70
  %130 = add nsw i32 %129, 1
  store i32 %130, ptr %8, align 4, !tbaa !70
  br label %64, !llvm.loop !300

131:                                              ; preds = %70
  %132 = load ptr, ptr %5, align 8, !tbaa !69
  %133 = getelementptr inbounds nuw %struct.HEVCVPS, ptr %132, i32 0, i32 18
  %134 = load i32, ptr %133, align 8, !tbaa !71
  %135 = load ptr, ptr %4, align 8, !tbaa !4
  %136 = getelementptr inbounds nuw %struct.HEVCContext, ptr %135, i32 0, i32 48
  store i32 %134, ptr %136, align 8, !tbaa !295
  %137 = load ptr, ptr %4, align 8, !tbaa !4
  %138 = getelementptr inbounds nuw %struct.HEVCContext, ptr %137, i32 0, i32 49
  %139 = load ptr, ptr %138, align 8, !tbaa !299
  %140 = icmp ne ptr %139, null
  br i1 %140, label %141, label %145

141:                                              ; preds = %131
  %142 = load ptr, ptr %5, align 8, !tbaa !69
  %143 = getelementptr inbounds nuw %struct.HEVCVPS, ptr %142, i32 0, i32 18
  %144 = load i32, ptr %143, align 8, !tbaa !71
  br label %146

145:                                              ; preds = %131
  br label %146

146:                                              ; preds = %145, %141
  %147 = phi i32 [ %144, %141 ], [ 0, %145 ]
  %148 = load ptr, ptr %4, align 8, !tbaa !4
  %149 = getelementptr inbounds nuw %struct.HEVCContext, ptr %148, i32 0, i32 50
  store i32 %147, ptr %149, align 8, !tbaa !296
  store i32 0, ptr %3, align 4
  store i32 1, ptr %7, align 4
  br label %150

150:                                              ; preds = %146, %61, %43, %30
  call void @llvm.lifetime.end.p0(i64 8, ptr %6) #12
  %151 = load i32, ptr %3, align 4
  ret i32 %151
}