; Function Attrs: nounwind uwtable
define internal fastcc range(i32 -12, 1) i32 @export_multilayer(ptr noundef %0, ptr noundef readonly captures(none) %1) unnamed_addr #0 {
  %3 = getelementptr inbounds nuw i8, ptr %0, i64 716032
  tail call void @av_freep(ptr noundef nonnull %3) #15
  %4 = getelementptr inbounds nuw i8, ptr %0, i64 716040
  store i32 0, ptr %4, align 8, !tbaa !279
  %5 = getelementptr inbounds nuw i8, ptr %0, i64 716048
  tail call void @av_freep(ptr noundef nonnull %5) #15
  %6 = getelementptr inbounds nuw i8, ptr %0, i64 716056
  store i32 0, ptr %6, align 8, !tbaa !280
  %7 = getelementptr inbounds nuw i8, ptr %1, i64 568
  %8 = load i32, ptr %7, align 8, !tbaa !67
  %9 = icmp slt i32 %8, 2
  br i1 %9, label %10, label %13

10:                                               ; preds = %2
  %11 = getelementptr inbounds nuw i8, ptr %1, i64 656
  %12 = load i16, ptr %11, align 8, !tbaa !141
  %.not = icmp eq i16 %12, 0
  br i1 %.not, label %54, label %13

13:                                               ; preds = %10, %2
  %14 = sext i32 %8 to i64
  %15 = tail call noalias ptr @av_calloc(i64 noundef %14, i64 noundef 4) #15
  store ptr %15, ptr %3, align 8, !tbaa !281
  %.not38 = icmp eq ptr %15, null
  br i1 %.not38, label %54, label %16

16:                                               ; preds = %13
  %17 = getelementptr inbounds nuw i8, ptr %0, i64 8215
  %18 = load i8, ptr %17, align 1, !tbaa !282
  %.not39 = icmp eq i8 %18, 0
  br i1 %.not39, label %._crit_edge51, label %19

._crit_edge51:                                    ; preds = %16
  %.pre.pre = load ptr, ptr %5, align 8, !tbaa !283
  br label %23

19:                                               ; preds = %16
  %20 = load i32, ptr %7, align 8, !tbaa !67
  %21 = sext i32 %20 to i64
  %22 = tail call noalias ptr @av_calloc(i64 noundef %21, i64 noundef 4) #15
  store ptr %22, ptr %5, align 8, !tbaa !283
  %.not40 = icmp eq ptr %22, null
  br i1 %.not40, label %54, label %23

23:                                               ; preds = %._crit_edge51, %19
  %.pre = phi ptr [ %.pre.pre, %._crit_edge51 ], [ %22, %19 ]
  %24 = load i32, ptr %7, align 8, !tbaa !67
  %25 = icmp sgt i32 %24, 0
  br i1 %25, label %.lr.ph, label %._crit_edge

.lr.ph:                                           ; preds = %23
  %26 = getelementptr inbounds nuw i8, ptr %1, i64 656
  %27 = load ptr, ptr %3, align 8, !tbaa !281
  %.not42 = icmp eq ptr %.pre, null
  %28 = getelementptr inbounds nuw i8, ptr %0, i64 8280
  br i1 %.not42, label %.lr.ph.split.us, label %.lr.ph.split

.lr.ph.split.us:                                  ; preds = %.lr.ph, %.lr.ph.split.us
  %indvars.iv48 = phi i64 [ %indvars.iv.next49, %.lr.ph.split.us ], [ 0, %.lr.ph ]
  %29 = getelementptr inbounds nuw [2 x i16], ptr %26, i64 0, i64 %indvars.iv48
  %30 = load i16, ptr %29, align 2, !tbaa !141
  %31 = zext i16 %30 to i32
  %32 = getelementptr inbounds nuw i32, ptr %27, i64 %indvars.iv48
  store i32 %31, ptr %32, align 4, !tbaa !137
  %indvars.iv.next49 = add nuw nsw i64 %indvars.iv48, 1
  %33 = load i32, ptr %7, align 8, !tbaa !67
  %34 = sext i32 %33 to i64
  %35 = icmp slt i64 %indvars.iv.next49, %34
  br i1 %35, label %.lr.ph.split.us, label %._crit_edge, !llvm.loop !284

.lr.ph.split:                                     ; preds = %.lr.ph
  %36 = getelementptr inbounds nuw i8, ptr %0, i64 8216
  %37 = load i16, ptr %36, align 2, !tbaa !141
  br label %38

._crit_edge:                                      ; preds = %48, %.lr.ph.split.us, %23
  %.lcssa = phi i32 [ %24, %23 ], [ %33, %.lr.ph.split.us ], [ %51, %48 ]
  store i32 %.lcssa, ptr %4, align 8, !tbaa !279
  %.not41 = icmp eq ptr %.pre, null
  %spec.select = select i1 %.not41, i32 0, i32 %.lcssa
  store i32 %spec.select, ptr %6, align 8, !tbaa !280
  br label %54

38:                                               ; preds = %.lr.ph.split, %48
  %indvars.iv = phi i64 [ 0, %.lr.ph.split ], [ %indvars.iv.next, %48 ]
  %39 = getelementptr inbounds nuw [2 x i16], ptr %26, i64 0, i64 %indvars.iv
  %40 = load i16, ptr %39, align 2, !tbaa !141
  %41 = zext i16 %40 to i32
  %42 = getelementptr inbounds nuw i32, ptr %27, i64 %indvars.iv
  store i32 %41, ptr %42, align 4, !tbaa !137
  %43 = icmp eq i16 %40, %37
  br i1 %43, label %48, label %44

44:                                               ; preds = %38
  %45 = load i16, ptr %28, align 2, !tbaa !141
  %46 = icmp eq i16 %40, %45
  %47 = select i1 %46, i32 2, i32 3
  br label %48

48:                                               ; preds = %38, %44
  %49 = phi i32 [ %47, %44 ], [ 1, %38 ]
  %50 = getelementptr inbounds nuw i32, ptr %.pre, i64 %indvars.iv
  store i32 %49, ptr %50, align 4, !tbaa !137
  %indvars.iv.next = add nuw nsw i64 %indvars.iv, 1
  %51 = load i32, ptr %7, align 8, !tbaa !67
  %52 = sext i32 %51 to i64
  %53 = icmp slt i64 %indvars.iv.next, %52
  br i1 %53, label %38, label %._crit_edge, !llvm.loop !284

54:                                               ; preds = %19, %13, %10, %._crit_edge
  %.035 = phi i32 [ 0, %._crit_edge ], [ 0, %10 ], [ -12, %13 ], [ -12, %19 ]
  ret i32 %.035
}